target datalayout = "e-m:e-p270:32:32-p271:32:32-p272:64:64-i64:64-i128:128-f80:128-n8:16:32:64-S128"
target triple = "x86_64-pc-linux-gnu"

%"class.std::__cxx11::basic_string" = type { %"struct.std::__cxx11::basic_string<char>::_Alloc_hider", i64, %union.anon }
%"struct.std::__cxx11::basic_string<char>::_Alloc_hider" = type { ptr }
%union.anon = type { i64, [8 x i8] }
%"class.std::type_info" = type { ptr, ptr }

$_ZStneIcSt11char_traitsIcESaIcEEbRKNSt7__cxx1112basic_stringIT_T0_T1_EEPKS5_ = comdat any

$_ZN32pxrInternal_v0_24__pxrReserved__16ArchGetDemangledIiEENSt7__cxx1112basic_stringIcSt11char_traitsIcESaIcEEEv = comdat any

$_ZNKSt9type_info4nameEv = comdat any

$_ZSteqIcSt11char_traitsIcESaIcEEbRKNSt7__cxx1112basic_stringIT_T0_T1_EEPKS5_ = comdat any

@.str = private unnamed_addr constant [4 x i8] c"int\00", align 1
@.str.1 = private unnamed_addr constant [37 x i8] c"C++ demangling appears badly broken.\00", align 1
@__func__._ZN32pxrInternal_v0_24__pxrReserved__24Arch_ValidateAssumptionsEv = private unnamed_addr constant [25 x i8] c"Arch_ValidateAssumptions\00", align 1
@.str.2 = private unnamed_addr constant [123 x i8] c"generated/home/dtcxzyw/WorkSpace/Projects/compilers/llvm-opt-benchmark/bench/openusd/OpenUSD/pxr/base/arch/assumptions.cpp\00", align 1
@.str.3 = private unnamed_addr constant [51 x i8] c"ARCH_CACHE_LINE_SIZE != Arch_ObtainCacheLineSize()\00", align 1
@__const._ZN32pxrInternal_v0_24__pxrReserved__24Arch_ValidateAssumptionsEv.buf = private unnamed_addr constant [4 x i8] c"\01\02\03\04", align 1
@.str.4 = private unnamed_addr constant [37 x i8] c"Big-endian byte order not supported.\00", align 1
@_ZTIi = external constant ptr

; Function Attrs: mustprogress uwtable
define hidden void @_ZN32pxrInternal_v0_24__pxrReserved__24Arch_ValidateAssumptionsEv() #0 personality ptr @__gxx_personality_v0 {
  %1 = alloca %"class.std::__cxx11::basic_string", align 8
  %2 = alloca ptr, align 8
  %3 = alloca i32, align 4
  %4 = alloca i64, align 8
  %5 = alloca i32, align 4
  %6 = alloca [4 x i8], align 1
  call void @_ZN32pxrInternal_v0_24__pxrReserved__16ArchGetDemangledIiEENSt7__cxx1112basic_stringIcSt11char_traitsIcESaIcEEEv(ptr dead_on_unwind writable sret(%"class.std::__cxx11::basic_string") align 8 %1)
  %7 = invoke noundef zeroext i1 @_ZStneIcSt11char_traitsIcESaIcEEbRKNSt7__cxx1112basic_stringIT_T0_T1_EEPKS5_(ptr noundef nonnull align 8 dereferenceable(32) %1, ptr noundef @.str)
          to label %8 unwind label %10

8:                                                ; preds = %0
  call void @_ZNSt7__cxx1112basic_stringIcSt11char_traitsIcESaIcEED1Ev(ptr noundef nonnull align 8 dereferenceable(32) %1) #6
  br i1 %7, label %9, label %14

9:                                                ; preds = %8
  call void @_ZN32pxrInternal_v0_24__pxrReserved__12Arch_WarningEPKcS1_mS1_(ptr noundef @.str.1, ptr noundef @__func__._ZN32pxrInternal_v0_24__pxrReserved__24Arch_ValidateAssumptionsEv, i64 noundef 107, ptr noundef @.str.2)
  br label %14

10:                                               ; preds = %0
  %11 = landingpad { ptr, i32 }
          cleanup
  %12 = extractvalue { ptr, i32 } %11, 0
  store ptr %12, ptr %2, align 8
  %13 = extractvalue { ptr, i32 } %11, 1
  store i32 %13, ptr %3, align 4
  call void @_ZNSt7__cxx1112basic_stringIcSt11char_traitsIcESaIcEED1Ev(ptr noundef nonnull align 8 dereferenceable(32) %1) #6
  br label %25

14:                                               ; preds = %9, %8
  %15 = call noundef i64 @_ZN32pxrInternal_v0_24__pxrReserved__L24Arch_ObtainCacheLineSizeEv()
  store i64 %15, ptr %4, align 8
  %16 = load i64, ptr %4, align 8
  %17 = icmp ne i64 64, %16
  br i1 %17, label %18, label %19

18:                                               ; preds = %14
  call void @_ZN32pxrInternal_v0_24__pxrReserved__12Arch_WarningEPKcS1_mS1_(ptr noundef @.str.3, ptr noundef @__func__._ZN32pxrInternal_v0_24__pxrReserved__24Arch_ValidateAssumptionsEv, i64 noundef 138, ptr noundef @.str.2)
  br label %19

19:                                               ; preds = %18, %14
  call void @llvm.memcpy.p0.p0.i64(ptr align 1 %6, ptr align 1 @__const._ZN32pxrInternal_v0_24__pxrReserved__24Arch_ValidateAssumptionsEv.buf, i64 4, i1 false)
  %20 = getelementptr inbounds [4 x i8], ptr %6, i64 0, i64 0
  call void @llvm.memcpy.p0.p0.i64(ptr align 4 %5, ptr align 1 %20, i64 4, i1 false)
  %21 = load i32, ptr %5, align 4
  %22 = icmp ne i32 %21, 67305985
  br i1 %22, label %23, label %24

23:                                               ; preds = %19
  call void @_ZN32pxrInternal_v0_24__pxrReserved__10Arch_ErrorEPKcS1_mS1_(ptr noundef @.str.4, ptr noundef @__func__._ZN32pxrInternal_v0_24__pxrReserved__24Arch_ValidateAssumptionsEv, i64 noundef 150, ptr noundef @.str.2) #7
  unreachable

24:                                               ; preds = %19
  ret void

25:                                               ; preds = %10
  %26 = load ptr, ptr %2, align 8
  %27 = load i32, ptr %3, align 4
  %28 = insertvalue { ptr, i32 } poison, ptr %26, 0
  %29 = insertvalue { ptr, i32 } %28, i32 %27, 1
  resume { ptr, i32 } %29
}

; Function Attrs: mustprogress uwtable
define linkonce_odr noundef zeroext i1 @_ZStneIcSt11char_traitsIcESaIcEEbRKNSt7__cxx1112basic_stringIT_T0_T1_EEPKS5_(ptr noundef nonnull align 8 dereferenceable(32) %0, ptr noundef %1) #0 comdat {
  %3 = alloca ptr, align 8
  %4 = alloca ptr, align 8
  store ptr %0, ptr %3, align 8
  store ptr %1, ptr %4, align 8
  %5 = load ptr, ptr %3, align 8
  %6 = load ptr, ptr %4, align 8
  %7 = call noundef zeroext i1 @_ZSteqIcSt11char_traitsIcESaIcEEbRKNSt7__cxx1112basic_stringIT_T0_T1_EEPKS5_(ptr noundef nonnull align 8 dereferenceable(32) %5, ptr noundef %6)
  %8 = xor i1 %7, true
  ret i1 %8
}

; Function Attrs: mustprogress uwtable
define linkonce_odr void @_ZN32pxrInternal_v0_24__pxrReserved__16ArchGetDemangledIiEENSt7__cxx1112basic_stringIcSt11char_traitsIcESaIcEEEv(ptr dead_on_unwind noalias writable sret(%"class.std::__cxx11::basic_string") align 8 %0) #0 comdat {
  %2 = alloca ptr, align 8
  store ptr %0, ptr %2, align 8
  %3 = call noundef ptr @_ZNKSt9type_info4nameEv(ptr noundef nonnull align 8 dereferenceable(16) @_ZTIi) #6
  call void @_ZN32pxrInternal_v0_24__pxrReserved__16ArchGetDemangledB5cxx11EPKc(ptr dead_on_unwind writable sret(%"class.std::__cxx11::basic_string") align 8 %0, ptr noundef %3)
  ret void
}

declare i32 @__gxx_personality_v0(...)

; Function Attrs: nounwind
declare void @_ZNSt7__cxx1112basic_stringIcSt11char_traitsIcESaIcEED1Ev(ptr noundef nonnull align 8 dereferenceable(32)) unnamed_addr #1

declare void @_ZN32pxrInternal_v0_24__pxrReserved__12Arch_WarningEPKcS1_mS1_(ptr noundef, ptr noundef, i64 noundef, ptr noundef) #2

; Function Attrs: mustprogress nounwind uwtable
define internal noundef i64 @_ZN32pxrInternal_v0_24__pxrReserved__L24Arch_ObtainCacheLineSizeEv() #3 {
  %1 = call i64 @sysconf(i32 noundef 190) #6
  ret i64 %1
}

; Function Attrs: nocallback nofree nounwind willreturn memory(argmem: readwrite)
declare void @llvm.memcpy.p0.p0.i64(ptr noalias nocapture writeonly, ptr noalias nocapture readonly, i64, i1 immarg) #4

; Function Attrs: noreturn
declare void @_ZN32pxrInternal_v0_24__pxrReserved__10Arch_ErrorEPKcS1_mS1_(ptr noundef, ptr noundef, i64 noundef, ptr noundef) #5

; Function Attrs: nounwind
declare i64 @sysconf(i32 noundef) #1

declare void @_ZN32pxrInternal_v0_24__pxrReserved__16ArchGetDemangledB5cxx11EPKc(ptr dead_on_unwind writable sret(%"class.std::__cxx11::basic_string") align 8, ptr noundef) #2

; Function Attrs: mustprogress nounwind uwtable
define linkonce_odr noundef ptr @_ZNKSt9type_info4nameEv(ptr noundef nonnull align 8 dereferenceable(16) %0) #3 comdat align 2 {
  %2 = alloca ptr, align 8
  store ptr %0, ptr %2, align 8
  %3 = load ptr, ptr %2, align 8
  %4 = getelementptr inbounds nuw %"class.std::type_info", ptr %3, i32 0, i32 1
  %5 = load ptr, ptr %4, align 8
  %6 = getelementptr inbounds i8, ptr %5, i64 0
  %7 = load i8, ptr %6, align 1
  %8 = sext i8 %7 to i32
  %9 = icmp eq i32 %8, 42
  br i1 %9, label %10, label %14

10:                                               ; preds = %1
  %11 = getelementptr inbounds nuw %"class.std::type_info", ptr %3, i32 0, i32 1
  %12 = load ptr, ptr %11, align 8
  %13 = getelementptr inbounds i8, ptr %12, i64 1
  br label %17

14:                                               ; preds = %1
  %15 = getelementptr inbounds nuw %"class.std::type_info", ptr %3, i32 0, i32 1
  %16 = load ptr, ptr %15, align 8
  br label %17

17:                                               ; preds = %14, %10
  %18 = phi ptr [ %13, %10 ], [ %16, %14 ]
  ret ptr %18
}

; Function Attrs: mustprogress nounwind uwtable
define linkonce_odr noundef zeroext i1 @_ZSteqIcSt11char_traitsIcESaIcEEbRKNSt7__cxx1112basic_stringIT_T0_T1_EEPKS5_(ptr noundef nonnull align 8 dereferenceable(32) %0, ptr noundef %1) #3 comdat {
  %3 = alloca ptr, align 8
  %4 = alloca ptr, align 8
  store ptr %0, ptr %3, align 8
  store ptr %1, ptr %4, align 8
  %5 = load ptr, ptr %3, align 8
  %6 = load ptr, ptr %4, align 8
  %7 = call noundef i32 @_ZNKSt7__cxx1112basic_stringIcSt11char_traitsIcESaIcEE7compareEPKc(ptr noundef nonnull align 8 dereferenceable(32) %5, ptr noundef %6) #6
  %8 = icmp eq i32 %7, 0
  ret i1 %8
}

; Function Attrs: nounwind
declare noundef i32 @_ZNKSt7__cxx1112basic_stringIcSt11char_traitsIcESaIcEE7compareEPKc(ptr noundef nonnull align 8 dereferenceable(32), ptr noundef) #1


!llvm.module.flags = !{!0, !1, !2, !3}

!0 = !{i32 1, !"wchar_size", i32 4}
!1 = !{i32 8, !"PIC Level", i32 2}
!2 = !{i32 7, !"uwtable", i32 2}
!3 = !{i32 7, !"frame-pointer", i32 2}
